target datalayout = "e-m:e-p270:32:32-p271:32:32-p272:64:64-i64:64-i128:128-f80:128-n8:16:32:64-S128"
target triple = "x86_64-pc-linux-gnu"

%struct.slurm_update_node_msg = type { ptr, i32, ptr, ptr, ptr, ptr, ptr, ptr, ptr, ptr, ptr, ptr, i32, ptr, i32, i32, i32 }
%struct.delete_partition_msg = type { ptr }
%struct.reservation_name_msg = type { ptr }

@exit_code = dso_local global i32 0, align 4
@stderr = external global ptr, align 8
@.str.145 = private unnamed_addr constant [9 x i8] c"NodeName\00", align 1
@.str.146 = private unnamed_addr constant [14 x i8] c"PartitionName\00", align 1
@.str.147 = private unnamed_addr constant [16 x i8] c"ReservationName\00", align 1
@.str.227 = private unnamed_addr constant [66 x i8] c"Proper format is 'delete <ENTITY>=<ID>' or 'delete <ENTITY> <ID>'\00", align 1
@.str.228 = private unnamed_addr constant [15 x i8] c"delete_node %s\00", align 1
@.str.229 = private unnamed_addr constant [20 x i8] c"delete_partition %s\00", align 1
@.str.230 = private unnamed_addr constant [22 x i8] c"delete_reservation %s\00", align 1
@.str.231 = private unnamed_addr constant [29 x i8] c"Invalid deletion entity: %s\0A\00", align 1

; Function Attrs: nounwind uwtable
define internal void @_delete_it(i32 noundef %0, ptr noundef %1) #0 {
  %3 = alloca i32, align 4
  %4 = alloca ptr, align 8
  %5 = alloca ptr, align 8
  %6 = alloca ptr, align 8
  %7 = alloca i32, align 4
  %8 = alloca i32, align 4
  %9 = alloca %struct.slurm_update_node_msg, align 8
  %10 = alloca [64 x i8], align 16
  %11 = alloca %struct.delete_partition_msg, align 8
  %12 = alloca [64 x i8], align 16
  %13 = alloca %struct.reservation_name_msg, align 8
  %14 = alloca [64 x i8], align 16
  store i32 %0, ptr %3, align 4
  store ptr %1, ptr %4, align 8
  call void @llvm.lifetime.start.p0(i64 8, ptr %5) #12
  store ptr null, ptr %5, align 8
  call void @llvm.lifetime.start.p0(i64 8, ptr %6) #12
  store ptr null, ptr %6, align 8
  call void @llvm.lifetime.start.p0(i64 4, ptr %7) #12
  store i32 0, ptr %7, align 4
  %15 = load i32, ptr %3, align 4
  %16 = icmp eq i32 %15, 1
  br i1 %16, label %17, label %41

17:                                               ; preds = %2
  %18 = load ptr, ptr %4, align 8
  %19 = getelementptr inbounds ptr, ptr %18, i64 0
  %20 = load ptr, ptr %19, align 8
  store ptr %20, ptr %5, align 8
  %21 = load ptr, ptr %4, align 8
  %22 = getelementptr inbounds ptr, ptr %21, i64 0
  %23 = load ptr, ptr %22, align 8
  %24 = call ptr @strchr(ptr noundef %23, i32 noundef 61) #15
  store ptr %24, ptr %6, align 8
  %25 = load ptr, ptr %6, align 8
  %26 = icmp ne ptr %25, null
  br i1 %26, label %27, label %38

27:                                               ; preds = %17
  %28 = load ptr, ptr %6, align 8
  %29 = load ptr, ptr %4, align 8
  %30 = getelementptr inbounds ptr, ptr %29, i64 0
  %31 = load ptr, ptr %30, align 8
  %32 = ptrtoint ptr %28 to i64
  %33 = ptrtoint ptr %31 to i64
  %34 = sub i64 %32, %33
  %35 = trunc i64 %34 to i32
  store i32 %35, ptr %7, align 4
  %36 = load ptr, ptr %6, align 8
  %37 = getelementptr inbounds nuw i8, ptr %36, i32 1
  store ptr %37, ptr %6, align 8
  br label %40

38:                                               ; preds = %17
  %39 = call i32 (ptr, ...) @error(ptr noundef @.str.227)
  store i32 1, ptr @exit_code, align 4
  store i32 1, ptr %8, align 4
  br label %143

40:                                               ; preds = %27
  br label %59

41:                                               ; preds = %2
  %42 = load i32, ptr %3, align 4
  %43 = icmp eq i32 %42, 2
  br i1 %43, label %44, label %56

44:                                               ; preds = %41
  %45 = load ptr, ptr %4, align 8
  %46 = getelementptr inbounds ptr, ptr %45, i64 0
  %47 = load ptr, ptr %46, align 8
  store ptr %47, ptr %5, align 8
  %48 = load ptr, ptr %4, align 8
  %49 = getelementptr inbounds ptr, ptr %48, i64 0
  %50 = load ptr, ptr %49, align 8
  %51 = call i64 @strlen(ptr noundef %50) #15
  %52 = trunc i64 %51 to i32
  store i32 %52, ptr %7, align 4
  %53 = load ptr, ptr %4, align 8
  %54 = getelementptr inbounds ptr, ptr %53, i64 1
  %55 = load ptr, ptr %54, align 8
  store ptr %55, ptr %6, align 8
  br label %58

56:                                               ; preds = %41
  %57 = call i32 (ptr, ...) @error(ptr noundef @.str.227)
  store i32 1, ptr @exit_code, align 4
  store i32 1, ptr %8, align 4
  br label %143

58:                                               ; preds = %44
  br label %59

59:                                               ; preds = %58, %40
  %60 = load ptr, ptr %5, align 8
  %61 = load i32, ptr %7, align 4
  %62 = icmp sgt i32 %61, 3
  br i1 %62, label %63, label %65

63:                                               ; preds = %59
  %64 = load i32, ptr %7, align 4
  br label %66

65:                                               ; preds = %59
  br label %66

66:                                               ; preds = %65, %63
  %67 = phi i32 [ %64, %63 ], [ 3, %65 ]
  %68 = sext i32 %67 to i64
  %69 = call i32 @xstrncasecmp(ptr noundef %60, ptr noundef @.str.145, i64 noundef %68)
  %70 = icmp eq i32 %69, 0
  br i1 %70, label %71, label %84

71:                                               ; preds = %66
  call void @llvm.lifetime.start.p0(i64 128, ptr %9) #12
  call void @slurm_init_update_node_msg(ptr noundef %9)
  %72 = load ptr, ptr %6, align 8
  %73 = getelementptr inbounds nuw %struct.slurm_update_node_msg, ptr %9, i32 0, i32 11
  store ptr %72, ptr %73, align 8
  %74 = call i32 @slurm_delete_node(ptr noundef %9)
  %75 = icmp ne i32 %74, 0
  br i1 %75, label %76, label %83

76:                                               ; preds = %71
  call void @llvm.lifetime.start.p0(i64 64, ptr %10) #12
  %77 = getelementptr inbounds [64 x i8], ptr %10, i64 0, i64 0
  %78 = load ptr, ptr %4, align 8
  %79 = getelementptr inbounds ptr, ptr %78, i64 0
  %80 = load ptr, ptr %79, align 8
  %81 = call i32 (ptr, i64, ptr, ...) @snprintf(ptr noundef %77, i64 noundef 64, ptr noundef @.str.228, ptr noundef %80) #12
  %82 = getelementptr inbounds [64 x i8], ptr %10, i64 0, i64 0
  call void @slurm_perror(ptr noundef %82)
  store i32 1, ptr @exit_code, align 4
  call void @llvm.lifetime.end.p0(i64 64, ptr %10) #12
  br label %83

83:                                               ; preds = %76, %71
  call void @llvm.lifetime.end.p0(i64 128, ptr %9) #12
  br label %142

84:                                               ; preds = %66
  %85 = load ptr, ptr %5, align 8
  %86 = load i32, ptr %7, align 4
  %87 = icmp sgt i32 %86, 3
  br i1 %87, label %88, label %90

88:                                               ; preds = %84
  %89 = load i32, ptr %7, align 4
  br label %91

90:                                               ; preds = %84
  br label %91

91:                                               ; preds = %90, %88
  %92 = phi i32 [ %89, %88 ], [ 3, %90 ]
  %93 = sext i32 %92 to i64
  %94 = call i32 @xstrncasecmp(ptr noundef %85, ptr noundef @.str.146, i64 noundef %93)
  %95 = icmp eq i32 %94, 0
  br i1 %95, label %96, label %109

96:                                               ; preds = %91
  call void @llvm.lifetime.start.p0(i64 8, ptr %11) #12
  call void @llvm.memset.p0.i64(ptr align 8 %11, i8 0, i64 8, i1 false)
  %97 = load ptr, ptr %6, align 8
  %98 = getelementptr inbounds nuw %struct.delete_partition_msg, ptr %11, i32 0, i32 0
  store ptr %97, ptr %98, align 8
  %99 = call i32 @slurm_delete_partition(ptr noundef %11)
  %100 = icmp ne i32 %99, 0
  br i1 %100, label %101, label %108

101:                                              ; preds = %96
  call void @llvm.lifetime.start.p0(i64 64, ptr %12) #12
  %102 = getelementptr inbounds [64 x i8], ptr %12, i64 0, i64 0
  %103 = load ptr, ptr %4, align 8
  %104 = getelementptr inbounds ptr, ptr %103, i64 0
  %105 = load ptr, ptr %104, align 8
  %106 = call i32 (ptr, i64, ptr, ...) @snprintf(ptr noundef %102, i64 noundef 64, ptr noundef @.str.229, ptr noundef %105) #12
  %107 = getelementptr inbounds [64 x i8], ptr %12, i64 0, i64 0
  call void @slurm_perror(ptr noundef %107)
  store i32 1, ptr @exit_code, align 4
  call void @llvm.lifetime.end.p0(i64 64, ptr %12) #12
  br label %108

108:                                              ; preds = %101, %96
  call void @llvm.lifetime.end.p0(i64 8, ptr %11) #12
  br label %141

109:                                              ; preds = %91
  %110 = load ptr, ptr %5, align 8
  %111 = load i32, ptr %7, align 4
  %112 = icmp sgt i32 %111, 3
  br i1 %112, label %113, label %115

113:                                              ; preds = %109
  %114 = load i32, ptr %7, align 4
  br label %116

115:                                              ; preds = %109
  br label %116

116:                                              ; preds = %115, %113
  %117 = phi i32 [ %114, %113 ], [ 3, %115 ]
  %118 = sext i32 %117 to i64
  %119 = call i32 @xstrncasecmp(ptr noundef %110, ptr noundef @.str.147, i64 noundef %118)
  %120 = icmp eq i32 %119, 0
  br i1 %120, label %121, label %134

121:                                              ; preds = %116
  call void @llvm.lifetime.start.p0(i64 8, ptr %13) #12
  call void @llvm.memset.p0.i64(ptr align 8 %13, i8 0, i64 8, i1 false)
  %122 = load ptr, ptr %6, align 8
  %123 = getelementptr inbounds nuw %struct.reservation_name_msg, ptr %13, i32 0, i32 0
  store ptr %122, ptr %123, align 8
  %124 = call i32 @slurm_delete_reservation(ptr noundef %13)
  %125 = icmp ne i32 %124, 0
  br i1 %125, label %126, label %133

126:                                              ; preds = %121
  call void @llvm.lifetime.start.p0(i64 64, ptr %14) #12
  %127 = getelementptr inbounds [64 x i8], ptr %14, i64 0, i64 0
  %128 = load ptr, ptr %4, align 8
  %129 = getelementptr inbounds ptr, ptr %128, i64 0
  %130 = load ptr, ptr %129, align 8
  %131 = call i32 (ptr, i64, ptr, ...) @snprintf(ptr noundef %127, i64 noundef 64, ptr noundef @.str.230, ptr noundef %130) #12
  %132 = getelementptr inbounds [64 x i8], ptr %14, i64 0, i64 0
  call void @slurm_perror(ptr noundef %132)
  store i32 1, ptr @exit_code, align 4
  call void @llvm.lifetime.end.p0(i64 64, ptr %14) #12
  br label %133

133:                                              ; preds = %126, %121
  call void @llvm.lifetime.end.p0(i64 8, ptr %13) #12
  br label %140

134:                                              ; preds = %116
  store i32 1, ptr @exit_code, align 4
  %135 = load ptr, ptr @stderr, align 8
  %136 = load ptr, ptr %4, align 8
  %137 = getelementptr inbounds ptr, ptr %136, i64 0
  %138 = load ptr, ptr %137, align 8
  %139 = call i32 (ptr, ptr, ...) @fprintf(ptr noundef %135, ptr noundef @.str.231, ptr noundef %138) #12
  br label %140

140:                                              ; preds = %134, %133
  br label %141

141:                                              ; preds = %140, %108
  br label %142

142:                                              ; preds = %141, %83
  store i32 0, ptr %8, align 4
  br label %143

143:                                              ; preds = %142, %56, %38
  call void @llvm.lifetime.end.p0(i64 4, ptr %7) #12
  call void @llvm.lifetime.end.p0(i64 8, ptr %6) #12
  call void @llvm.lifetime.end.p0(i64 8, ptr %5) #12
  %144 = load i32, ptr %8, align 4
  switch i32 %144, label %146 [
    i32 0, label %145
    i32 1, label %145
  ]

145:                                              ; preds = %143, %143
  ret void

146:                                              ; preds = %143
  unreachable
}