; Function Attrs: nounwind uwtable
define internal fastcc void @_delete_it(i32 noundef range(i32 1, 2147483647) %0, ptr noundef readonly captures(none) %1) unnamed_addr #8 {
  %3 = alloca %struct.slurm_update_node_msg, align 8
  %4 = alloca [64 x i8], align 16
  %5 = alloca %struct.delete_partition_msg, align 8
  %6 = alloca [64 x i8], align 16
  %7 = alloca %struct.reservation_name_msg, align 8
  %8 = alloca [64 x i8], align 16
  switch i32 %0, label %24 [
    i32 1, label %9
    i32 2, label %19
  ]

9:                                                ; preds = %2
  %10 = load ptr, ptr %1, align 8
  %11 = tail call ptr @strchr(ptr noundef nonnull dereferenceable(1) %10, i32 noundef 61) #23
  %.not = icmp eq ptr %11, null
  br i1 %.not, label %17, label %12

12:                                               ; preds = %9
  %13 = ptrtoint ptr %11 to i64
  %14 = ptrtoint ptr %10 to i64
  %15 = sub i64 %13, %14
  %16 = getelementptr inbounds nuw i8, ptr %11, i64 1
  br label %26

17:                                               ; preds = %9
  %18 = tail call i32 (ptr, ...) @error(ptr noundef nonnull @.str.227) #18
  store i32 1, ptr @exit_code, align 4
  br label %60

19:                                               ; preds = %2
  %20 = load ptr, ptr %1, align 8
  %21 = tail call i64 @strlen(ptr noundef nonnull dereferenceable(1) %20) #23
  %22 = getelementptr inbounds nuw i8, ptr %1, i64 8
  %23 = load ptr, ptr %22, align 8
  br label %26

24:                                               ; preds = %2
  %25 = tail call i32 (ptr, ...) @error(ptr noundef nonnull @.str.227) #18
  store i32 1, ptr @exit_code, align 4
  br label %60

26:                                               ; preds = %19, %12
  %.027 = phi ptr [ %10, %12 ], [ %20, %19 ]
  %.026 = phi ptr [ %16, %12 ], [ %23, %19 ]
  %.0.in = phi i64 [ %15, %12 ], [ %21, %19 ]
  %.0 = trunc i64 %.0.in to i32
  %27 = tail call i32 @llvm.smax.i32(i32 %.0, i32 3)
  %28 = zext nneg i32 %27 to i64
  %29 = tail call i32 @xstrncasecmp(ptr noundef nonnull %.027, ptr noundef nonnull @.str.145, i64 noundef %28) #18
  %30 = icmp eq i32 %29, 0
  br i1 %30, label %31, label %38

31:                                               ; preds = %26
  call void @llvm.lifetime.start.p0(i64 128, ptr nonnull %3) #18
  call void @slurm_init_update_node_msg(ptr noundef nonnull %3) #18
  %32 = getelementptr inbounds nuw i8, ptr %3, i64 88
  store ptr %.026, ptr %32, align 8
  %33 = call i32 @slurm_delete_node(ptr noundef nonnull %3) #18
  %.not32 = icmp eq i32 %33, 0
  br i1 %.not32, label %37, label %34

34:                                               ; preds = %31
  call void @llvm.lifetime.start.p0(i64 64, ptr nonnull %4) #18
  %35 = load ptr, ptr %1, align 8
  %36 = call i32 (ptr, i64, ptr, ...) @snprintf(ptr noundef nonnull dereferenceable(1) %4, i64 noundef 64, ptr noundef nonnull @.str.228, ptr noundef %35) #18
  call void @slurm_perror(ptr noundef nonnull %4) #18
  store i32 1, ptr @exit_code, align 4
  call void @llvm.lifetime.end.p0(i64 64, ptr nonnull %4) #18
  br label %37

37:                                               ; preds = %34, %31
  call void @llvm.lifetime.end.p0(i64 128, ptr nonnull %3) #18
  br label %60

38:                                               ; preds = %26
  %39 = tail call i32 @xstrncasecmp(ptr noundef nonnull %.027, ptr noundef nonnull @.str.146, i64 noundef %28) #18
  %40 = icmp eq i32 %39, 0
  br i1 %40, label %41, label %47

41:                                               ; preds = %38
  call void @llvm.lifetime.start.p0(i64 8, ptr nonnull %5) #18
  store ptr %.026, ptr %5, align 8
  %42 = call i32 @slurm_delete_partition(ptr noundef nonnull %5) #18
  %.not31 = icmp eq i32 %42, 0
  br i1 %.not31, label %46, label %43

43:                                               ; preds = %41
  call void @llvm.lifetime.start.p0(i64 64, ptr nonnull %6) #18
  %44 = load ptr, ptr %1, align 8
  %45 = call i32 (ptr, i64, ptr, ...) @snprintf(ptr noundef nonnull dereferenceable(1) %6, i64 noundef 64, ptr noundef nonnull @.str.229, ptr noundef %44) #18
  call void @slurm_perror(ptr noundef nonnull %6) #18
  store i32 1, ptr @exit_code, align 4
  call void @llvm.lifetime.end.p0(i64 64, ptr nonnull %6) #18
  br label %46

46:                                               ; preds = %43, %41
  call void @llvm.lifetime.end.p0(i64 8, ptr nonnull %5) #18
  br label %60

47:                                               ; preds = %38
  %48 = tail call i32 @xstrncasecmp(ptr noundef nonnull %.027, ptr noundef nonnull @.str.147, i64 noundef %28) #18
  %49 = icmp eq i32 %48, 0
  br i1 %49, label %50, label %56

50:                                               ; preds = %47
  call void @llvm.lifetime.start.p0(i64 8, ptr nonnull %7) #18
  store ptr %.026, ptr %7, align 8
  %51 = call i32 @slurm_delete_reservation(ptr noundef nonnull %7) #18
  %.not30 = icmp eq i32 %51, 0
  br i1 %.not30, label %55, label %52

52:                                               ; preds = %50
  call void @llvm.lifetime.start.p0(i64 64, ptr nonnull %8) #18
  %53 = load ptr, ptr %1, align 8
  %54 = call i32 (ptr, i64, ptr, ...) @snprintf(ptr noundef nonnull dereferenceable(1) %8, i64 noundef 64, ptr noundef nonnull @.str.230, ptr noundef %53) #18
  call void @slurm_perror(ptr noundef nonnull %8) #18
  store i32 1, ptr @exit_code, align 4
  call void @llvm.lifetime.end.p0(i64 64, ptr nonnull %8) #18
  br label %55

55:                                               ; preds = %52, %50
  call void @llvm.lifetime.end.p0(i64 8, ptr nonnull %7) #18
  br label %60

56:                                               ; preds = %47
  store i32 1, ptr @exit_code, align 4
  %57 = load ptr, ptr @stderr, align 8
  %58 = load ptr, ptr %1, align 8
  %59 = tail call i32 (ptr, ptr, ...) @fprintf(ptr noundef %57, ptr noundef nonnull @.str.231, ptr noundef %58) #22
  br label %60

60:                                               ; preds = %37, %55, %56, %46, %24, %17
  ret void
}